; ModuleID = '10/139.c'
source_filename = "10/139.c"
target datalayout = "e-m:e-p270:32:32-p271:32:32-p272:64:64-i64:64-f80:128-n8:16:32:64-S128"
target triple = "x86_64-pc-linux-gnu"

@.str = private unnamed_addr constant [3 x i8] c"%d\00", align 1
@.str.1 = private unnamed_addr constant [4 x i8] c"%d\0A\00", align 1

; Function Attrs: noinline nounwind uwtable
define dso_local void @main() #0 {
  %1 = alloca [50 x i32], align 16
  %2 = alloca [50 x i32], align 16
  %3 = alloca i32, align 4
  %4 = alloca i32, align 4
  %5 = alloca i32, align 4
  %6 = alloca i32, align 4
  %7 = alloca i32, align 4
  %8 = alloca i32, align 4
  %9 = bitcast [50 x i32]* %1 to i8*
  call void @llvm.memset.p0i8.i64(i8* align 16 %9, i8 0, i64 200, i1 false)
  store i32 1, i32* %6, align 4
  store i32 0, i32* %7, align 4
  %10 = call i32 (i8*, ...) @__isoc99_scanf(i8* getelementptr inbounds ([3 x i8], [3 x i8]* @.str, i64 0, i64 0), i32* %8)
  store i32 0, i32* %4, align 4
  br label %11

11:                                               ; preds = %23, %0
  %12 = load i32, i32* %4, align 4
  %13 = load i32, i32* %8, align 4
  %14 = icmp slt i32 %12, %13
  br i1 %14, label %15, label %26

15:                                               ; preds = %11
  %16 = load i32, i32* %4, align 4
  %17 = sext i32 %16 to i64
  %18 = getelementptr inbounds [50 x i32], [50 x i32]* %1, i64 0, i64 %17
  %19 = call i32 (i8*, ...) @__isoc99_scanf(i8* getelementptr inbounds ([3 x i8], [3 x i8]* @.str, i64 0, i64 0), i32* %18)
  %20 = load i32, i32* %4, align 4
  %21 = sext i32 %20 to i64
  %22 = getelementptr inbounds [50 x i32], [50 x i32]* %2, i64 0, i64 %21
  store i32 1, i32* %22, align 4
  br label %23

23:                                               ; preds = %15
  %24 = load i32, i32* %4, align 4
  %25 = add nsw i32 %24, 1
  store i32 %25, i32* %4, align 4
  br label %11

26:                                               ; preds = %11
  store i32 0, i32* %4, align 4
  br label %27

27:                                               ; preds = %78, %26
  %28 = load i32, i32* %4, align 4
  %29 = load i32, i32* %8, align 4
  %30 = icmp slt i32 %28, %29
  br i1 %30, label %31, label %81

31:                                               ; preds = %27
  store i32 0, i32* %5, align 4
  br label %32

32:                                               ; preds = %74, %31
  %33 = load i32, i32* %5, align 4
  %34 = load i32, i32* %4, align 4
  %35 = icmp slt i32 %33, %34
  br i1 %35, label %36, label %77

36:                                               ; preds = %32
  %37 = load i32, i32* %5, align 4
  %38 = sext i32 %37 to i64
  %39 = getelementptr inbounds [50 x i32], [50 x i32]* %1, i64 0, i64 %38
  %40 = load i32, i32* %39, align 4
  %41 = load i32, i32* %4, align 4
  %42 = sext i32 %41 to i64
  %43 = getelementptr inbounds [50 x i32], [50 x i32]* %1, i64 0, i64 %42
  %44 = load i32, i32* %43, align 4
  %45 = icmp sge i32 %40, %44
  br i1 %45, label %46, label %73

46:                                               ; preds = %36
  %47 = load i32, i32* %5, align 4
  %48 = sext i32 %47 to i64
  %49 = getelementptr inbounds [50 x i32], [50 x i32]* %2, i64 0, i64 %48
  %50 = load i32, i32* %49, align 4
  %51 = add nsw i32 %50, 1
  %52 = load i32, i32* %4, align 4
  %53 = sext i32 %52 to i64
  %54 = getelementptr inbounds [50 x i32], [50 x i32]* %2, i64 0, i64 %53
  %55 = load i32, i32* %54, align 4
  %56 = icmp sgt i32 %51, %55
  br i1 %56, label %57, label %63

57:                                               ; preds = %46
  %58 = load i32, i32* %5, align 4
  %59 = sext i32 %58 to i64
  %60 = getelementptr inbounds [50 x i32], [50 x i32]* %2, i64 0, i64 %59
  %61 = load i32, i32* %60, align 4
  %62 = add nsw i32 %61, 1
  br label %68

63:                                               ; preds = %46
  %64 = load i32, i32* %4, align 4
  %65 = sext i32 %64 to i64
  %66 = getelementptr inbounds [50 x i32], [50 x i32]* %2, i64 0, i64 %65
  %67 = load i32, i32* %66, align 4
  br label %68

68:                                               ; preds = %63, %57
  %69 = phi i32 [ %62, %57 ], [ %67, %63 ]
  %70 = load i32, i32* %4, align 4
  %71 = sext i32 %70 to i64
  %72 = getelementptr inbounds [50 x i32], [50 x i32]* %2, i64 0, i64 %71
  store i32 %69, i32* %72, align 4
  br label %73

73:                                               ; preds = %68, %36
  br label %74

74:                                               ; preds = %73
  %75 = load i32, i32* %5, align 4
  %76 = add nsw i32 %75, 1
  store i32 %76, i32* %5, align 4
  br label %32

77:                                               ; preds = %32
  br label %78

78:                                               ; preds = %77
  %79 = load i32, i32* %4, align 4
  %80 = add nsw i32 %79, 1
  store i32 %80, i32* %4, align 4
  br label %27

81:                                               ; preds = %27
  %82 = getelementptr inbounds [50 x i32], [50 x i32]* %2, i64 0, i64 0
  %83 = load i32, i32* %82, align 16
  store i32 %83, i32* %3, align 4
  store i32 1, i32* %4, align 4
  br label %84

84:                                               ; preds = %101, %81
  %85 = load i32, i32* %4, align 4
  %86 = load i32, i32* %8, align 4
  %87 = icmp slt i32 %85, %86
  br i1 %87, label %88, label %104

88:                                               ; preds = %84
  %89 = load i32, i32* %4, align 4
  %90 = sext i32 %89 to i64
  %91 = getelementptr inbounds [50 x i32], [50 x i32]* %2, i64 0, i64 %90
  %92 = load i32, i32* %91, align 4
  %93 = load i32, i32* %3, align 4
  %94 = icmp sgt i32 %92, %93
  br i1 %94, label %95, label %100

95:                                               ; preds = %88
  %96 = load i32, i32* %4, align 4
  %97 = sext i32 %96 to i64
  %98 = getelementptr inbounds [50 x i32], [50 x i32]* %2, i64 0, i64 %97
  %99 = load i32, i32* %98, align 4
  store i32 %99, i32* %3, align 4
  br label %100

100:                                              ; preds = %95, %88
  br label %101

101:                                              ; preds = %100
  %102 = load i32, i32* %4, align 4
  %103 = add nsw i32 %102, 1
  store i32 %103, i32* %4, align 4
  br label %84

104:                                              ; preds = %84
  %105 = load i32, i32* %3, align 4
  %106 = call i32 (i8*, ...) @printf(i8* getelementptr inbounds ([4 x i8], [4 x i8]* @.str.1, i64 0, i64 0), i32 %105)
  ret void
}

; Function Attrs: argmemonly nounwind willreturn
declare void @llvm.memset.p0i8.i64(i8* nocapture writeonly, i8, i64, i1 immarg) #1

declare dso_local i32 @__isoc99_scanf(i8*, ...) #2

declare dso_local i32 @printf(i8*, ...) #2


!llvm.module.flags = !{!0}
!llvm.ident = !{!1}

!0 = !{i32 1, !"wchar_size", i32 4}
!1 = !{!"clang version 10.0.0-4ubuntu1 "}
